cnumpy.core.multiarray
_reconstruct
p1
(cnumpy
ndarray
p2
(I0
tS'b'
tRp3
(I1
(I5
tcnumpy
dtype
p4
(S'f4'
I0
I1
tRp5
(I3
S'<'
NNNI-1
I-1
I0
tbI00
S'\xc5\xc2\xa0@\xf7\x18:@\x18\xaf1?\xa0\xfd\x98?>\xc1\t?'
tb.